target datalayout = "e-m:e-p270:32:32-p271:32:32-p272:64:64-i64:64-i128:128-f80:128-n8:16:32:64-S128"
target triple = "x86_64-pc-linux-gnu"

%struct.http2_session_data = type { ptr, ptr, ptr, ptr }
%struct.http2_stream_data = type { ptr, ptr, ptr, ptr, i64, i64, i32 }

; Function Attrs: nounwind uwtable
define internal void @delete_http2_stream_data(ptr noundef %0) #0 {
  %2 = alloca ptr, align 8
  store ptr %0, ptr %2, align 8, !tbaa !29
  %3 = load ptr, ptr %2, align 8, !tbaa !29
  %4 = getelementptr inbounds nuw %struct.http2_stream_data, ptr %3, i32 0, i32 3
  %5 = load ptr, ptr %4, align 8, !tbaa !47
  call void @free(ptr noundef %5) #10
  %6 = load ptr, ptr %2, align 8, !tbaa !29
  %7 = getelementptr inbounds nuw %struct.http2_stream_data, ptr %6, i32 0, i32 2
  %8 = load ptr, ptr %7, align 8, !tbaa !45
  call void @free(ptr noundef %8) #10
  %9 = load ptr, ptr %2, align 8, !tbaa !29
  call void @free(ptr noundef %9) #10
  ret void
}

; Function Attrs: nounwind uwtable
define internal void @delete_http2_session_data(ptr noundef %0) #0 {
  %2 = alloca ptr, align 8
  %3 = alloca ptr, align 8
  store ptr %0, ptr %2, align 8, !tbaa !29
  call void @llvm.lifetime.start.p0(i64 8, ptr %3) #10
  %4 = load ptr, ptr %2, align 8, !tbaa !29
  %5 = getelementptr inbounds nuw %struct.http2_session_data, ptr %4, i32 0, i32 2
  %6 = load ptr, ptr %5, align 8, !tbaa !51
  %7 = call ptr @bufferevent_openssl_get_ssl(ptr noundef %6)
  store ptr %7, ptr %3, align 8, !tbaa !48
  %8 = load ptr, ptr %3, align 8, !tbaa !48
  %9 = icmp ne ptr %8, null
  br i1 %9, label %10, label %13

10:                                               ; preds = %1
  %11 = load ptr, ptr %3, align 8, !tbaa !48
  %12 = call i32 @SSL_shutdown(ptr noundef %11)
  br label %13

13:                                               ; preds = %10, %1
  %14 = load ptr, ptr %2, align 8, !tbaa !29
  %15 = getelementptr inbounds nuw %struct.http2_session_data, ptr %14, i32 0, i32 2
  %16 = load ptr, ptr %15, align 8, !tbaa !51
  call void @bufferevent_free(ptr noundef %16)
  %17 = load ptr, ptr %2, align 8, !tbaa !29
  %18 = getelementptr inbounds nuw %struct.http2_session_data, ptr %17, i32 0, i32 2
  store ptr null, ptr %18, align 8, !tbaa !51
  %19 = load ptr, ptr %2, align 8, !tbaa !29
  %20 = getelementptr inbounds nuw %struct.http2_session_data, ptr %19, i32 0, i32 1
  %21 = load ptr, ptr %20, align 8, !tbaa !35
  call void @evdns_base_free(ptr noundef %21, i32 noundef 1)
  %22 = load ptr, ptr %2, align 8, !tbaa !29
  %23 = getelementptr inbounds nuw %struct.http2_session_data, ptr %22, i32 0, i32 1
  store ptr null, ptr %23, align 8, !tbaa !35
  %24 = load ptr, ptr %2, align 8, !tbaa !29
  %25 = getelementptr inbounds nuw %struct.http2_session_data, ptr %24, i32 0, i32 0
  %26 = load ptr, ptr %25, align 8, !tbaa !54
  call void @nghttp2_session_del(ptr noundef %26)
  %27 = load ptr, ptr %2, align 8, !tbaa !29
  %28 = getelementptr inbounds nuw %struct.http2_session_data, ptr %27, i32 0, i32 0
  store ptr null, ptr %28, align 8, !tbaa !54
  %29 = load ptr, ptr %2, align 8, !tbaa !29
  %30 = getelementptr inbounds nuw %struct.http2_session_data, ptr %29, i32 0, i32 3
  %31 = load ptr, ptr %30, align 8, !tbaa !30
  %32 = icmp ne ptr %31, null
  br i1 %32, label %33, label %39

33:                                               ; preds = %13
  %34 = load ptr, ptr %2, align 8, !tbaa !29
  %35 = getelementptr inbounds nuw %struct.http2_session_data, ptr %34, i32 0, i32 3
  %36 = load ptr, ptr %35, align 8, !tbaa !30
  call void @delete_http2_stream_data(ptr noundef %36)
  %37 = load ptr, ptr %2, align 8, !tbaa !29
  %38 = getelementptr inbounds nuw %struct.http2_session_data, ptr %37, i32 0, i32 3
  store ptr null, ptr %38, align 8, !tbaa !30
  br label %39

39:                                               ; preds = %33, %13
  %40 = load ptr, ptr %2, align 8, !tbaa !29
  call void @free(ptr noundef %40) #10
  call void @llvm.lifetime.end.p0(i64 8, ptr %3) #10
  ret void
}