; Function Attrs: nounwind uwtable
define internal fastcc void @delete_http2_session_data(ptr noundef captures(none) %0) unnamed_addr #0 {
  %2 = getelementptr inbounds nuw i8, ptr %0, i64 16
  %3 = load ptr, ptr %2, align 8, !tbaa !36
  %4 = tail call ptr @bufferevent_openssl_get_ssl(ptr noundef %3) #18
  %.not = icmp eq ptr %4, null
  br i1 %.not, label %7, label %5

5:                                                ; preds = %1
  %6 = tail call i32 @SSL_shutdown(ptr noundef nonnull %4) #18
  br label %7

7:                                                ; preds = %5, %1
  %8 = load ptr, ptr %2, align 8, !tbaa !36
  tail call void @bufferevent_free(ptr noundef %8) #18
  store ptr null, ptr %2, align 8, !tbaa !36
  %9 = getelementptr inbounds nuw i8, ptr %0, i64 8
  %10 = load ptr, ptr %9, align 8, !tbaa !18
  tail call void @evdns_base_free(ptr noundef %10, i32 noundef 1) #18
  store ptr null, ptr %9, align 8, !tbaa !18
  %11 = load ptr, ptr %0, align 8, !tbaa !37
  tail call void @nghttp2_session_del(ptr noundef %11) #18
  store ptr null, ptr %0, align 8, !tbaa !37
  %12 = getelementptr inbounds nuw i8, ptr %0, i64 24
  %13 = load ptr, ptr %12, align 8, !tbaa !35
  %.not14 = icmp eq ptr %13, null
  br i1 %.not14, label %19, label %14

14:                                               ; preds = %7
  %15 = getelementptr inbounds nuw i8, ptr %13, i64 24
  %16 = load ptr, ptr %15, align 8, !tbaa !34
  tail call void @free(ptr noundef %16) #18
  %17 = getelementptr inbounds nuw i8, ptr %13, i64 16
  %18 = load ptr, ptr %17, align 8, !tbaa !31
  tail call void @free(ptr noundef %18) #18
  tail call void @free(ptr noundef nonnull %13) #18
  br label %19

19:                                               ; preds = %14, %7
  tail call void @free(ptr noundef nonnull %0) #18
  ret void
}